target datalayout = "e-m:e-p270:32:32-p271:32:32-p272:64:64-i64:64-i128:128-f80:128-n8:16:32:64-S128"
target triple = "x86_64-pc-linux-gnu"

%"class.folly::EventBaseEvent" = type { %struct.event, ptr, ptr, ptr, %"struct.folly::EventCallback" }
%struct.event = type { %struct.event_callback, %union.anon.0, i32, ptr, %union.anon.2, i16, i16, %struct.timeval }
%struct.event_callback = type { %struct.anon, i16, i8, i8, %union.anon, ptr }
%struct.anon = type { ptr, ptr }
%union.anon = type { ptr }
%union.anon.0 = type { %struct.anon.1 }
%struct.anon.1 = type { ptr, ptr }
%union.anon.2 = type { %struct.anon.3 }
%struct.anon.3 = type { %struct.anon.4, %struct.timeval }
%struct.anon.4 = type { ptr, ptr }
%struct.timeval = type { i64, i64 }
%"struct.folly::EventCallback" = type { i32, %union.anon.7 }
%union.anon.7 = type { ptr }
%"class.folly::EventBase" = type { %"class.folly::TimeoutManager", %"class.folly::DrivableExecutor", %"class.folly::IOExecutor", %"class.folly::SequencedExecutor", %"class.folly::ScheduledExecutor", %"class.folly::GetThreadIdCollector", %"class.std::chrono::duration", i8, %"class.std::chrono::duration", i8, [7 x i8], %"class.std::optional", %"struct.std::atomic", %"struct.std::atomic.11", %"class.std::unique_ptr.12", %"class.boost::intrusive::list", %"class.boost::intrusive::list", %"class.boost::intrusive::list", %"struct.folly::Synchronized", %"struct.folly::Synchronized", ptr, %"struct.std::atomic.28", %"class.std::unique_ptr.30", %"struct.std::atomic.38", i8, %"class.std::chrono::duration.40", %"class.folly::EventBase::SmoothLoopTime", %"class.folly::EventBase::SmoothLoopTime", i8, %"class.folly::Function", i64, i64, %"class.std::chrono::time_point", %"class.std::shared_ptr", i32, %"class.boost::intrusive::list.42", %"class.std::__cxx11::basic_string", %"class.folly::F14FastMap", %"struct.folly::Synchronized.52", %"class.folly::basic_once_flag", %"class.std::unique_ptr.71", %"class.std::unique_ptr.79", %"class.std::unique_ptr.87", [8 x i8] }
%"class.folly::TimeoutManager" = type { ptr, %"class.std::unique_ptr" }
%"class.std::unique_ptr" = type { %"struct.std::__uniq_ptr_data" }
%"struct.std::__uniq_ptr_data" = type { %"class.std::__uniq_ptr_impl" }
%"class.std::__uniq_ptr_impl" = type { %"class.std::tuple" }
%"class.std::tuple" = type { %"struct.std::_Tuple_impl" }
%"struct.std::_Tuple_impl" = type { %"struct.std::_Head_base.9" }
%"struct.std::_Head_base.9" = type { ptr }
%"class.folly::DrivableExecutor" = type { %"class.folly::Executor" }
%"class.folly::Executor" = type { ptr }
%"class.folly::IOExecutor" = type { %"class.folly::Executor" }
%"class.folly::SequencedExecutor" = type { %"class.folly::Executor" }
%"class.folly::ScheduledExecutor" = type { %"class.folly::Executor" }
%"class.folly::GetThreadIdCollector" = type { ptr }
%"class.std::chrono::duration" = type { i64 }
%"class.std::optional" = type { %"struct.std::_Optional_base" }
%"struct.std::_Optional_base" = type { %"struct.std::_Optional_payload" }
%"struct.std::_Optional_payload" = type { %"struct.std::_Optional_payload_base.base", [7 x i8] }
%"struct.std::_Optional_payload_base.base" = type <{ %"union.std::_Optional_payload_base<folly::EventBase::LoopState>::_Storage", i8 }>
%"union.std::_Optional_payload_base<folly::EventBase::LoopState>::_Storage" = type { %"struct.folly::EventBase::LoopState" }
%"struct.folly::EventBase::LoopState" = type { %"class.std::chrono::time_point", %"class.std::chrono::time_point" }
%"struct.std::atomic" = type { %"struct.std::__atomic_base" }
%"struct.std::__atomic_base" = type { i32 }
%"struct.std::atomic.11" = type { %"class.std::thread::id" }
%"class.std::thread::id" = type { i64 }
%"class.std::unique_ptr.12" = type { %"struct.std::__uniq_ptr_data.13" }
%"struct.std::__uniq_ptr_data.13" = type { %"class.std::__uniq_ptr_impl.14" }
%"class.std::__uniq_ptr_impl.14" = type { %"class.std::tuple.15" }
%"class.std::tuple.15" = type { %"struct.std::_Tuple_impl.16" }
%"struct.std::_Tuple_impl.16" = type { %"struct.std::_Head_base.19" }
%"struct.std::_Head_base.19" = type { ptr }
%"class.boost::intrusive::list" = type { %"class.boost::intrusive::list_impl" }
%"class.boost::intrusive::list_impl" = type { %"struct.boost::intrusive::list_impl<boost::intrusive::bhtraits<folly::EventBase::LoopCallback, boost::intrusive::list_node_traits<void *>, boost::intrusive::auto_unlink, boost::intrusive::dft_tag, 1>, unsigned long, false, void>::data_t" }
%"struct.boost::intrusive::list_impl<boost::intrusive::bhtraits<folly::EventBase::LoopCallback, boost::intrusive::list_node_traits<void *>, boost::intrusive::auto_unlink, boost::intrusive::dft_tag, 1>, unsigned long, false, void>::data_t" = type { %"struct.boost::intrusive::list_impl<boost::intrusive::bhtraits<folly::EventBase::LoopCallback, boost::intrusive::list_node_traits<void *>, boost::intrusive::auto_unlink, boost::intrusive::dft_tag, 1>, unsigned long, false, void>::root_plus_size" }
%"struct.boost::intrusive::list_impl<boost::intrusive::bhtraits<folly::EventBase::LoopCallback, boost::intrusive::list_node_traits<void *>, boost::intrusive::auto_unlink, boost::intrusive::dft_tag, 1>, unsigned long, false, void>::root_plus_size" = type { %"struct.boost::intrusive::detail::default_header_holder" }
%"struct.boost::intrusive::detail::default_header_holder" = type { %"struct.boost::intrusive::list_node" }
%"struct.boost::intrusive::list_node" = type { ptr, ptr }
%"struct.folly::Synchronized" = type <{ %"class.boost::intrusive::list.21", %"class.folly::SharedMutexImpl", [4 x i8] }>
%"class.boost::intrusive::list.21" = type { %"class.boost::intrusive::list_impl.22" }
%"class.boost::intrusive::list_impl.22" = type { %"struct.boost::intrusive::list_impl<boost::intrusive::bhtraits<folly::EventBase::OnDestructionCallback, boost::intrusive::list_node_traits<void *>, boost::intrusive::normal_link, boost::intrusive::dft_tag, 1>, unsigned long, true, void>::data_t" }
%"struct.boost::intrusive::list_impl<boost::intrusive::bhtraits<folly::EventBase::OnDestructionCallback, boost::intrusive::list_node_traits<void *>, boost::intrusive::normal_link, boost::intrusive::dft_tag, 1>, unsigned long, true, void>::data_t" = type { %"struct.boost::intrusive::list_impl<boost::intrusive::bhtraits<folly::EventBase::OnDestructionCallback, boost::intrusive::list_node_traits<void *>, boost::intrusive::normal_link, boost::intrusive::dft_tag, 1>, unsigned long, true, void>::root_plus_size" }
%"struct.boost::intrusive::list_impl<boost::intrusive::bhtraits<folly::EventBase::OnDestructionCallback, boost::intrusive::list_node_traits<void *>, boost::intrusive::normal_link, boost::intrusive::dft_tag, 1>, unsigned long, true, void>::root_plus_size" = type { %"struct.boost::intrusive::detail::size_holder.25", %"struct.boost::intrusive::detail::default_header_holder" }
%"struct.boost::intrusive::detail::size_holder.25" = type { i64 }
%"class.folly::SharedMutexImpl" = type { %"struct.std::atomic.26" }
%"struct.std::atomic.26" = type { %"struct.std::__atomic_base.27" }
%"struct.std::__atomic_base.27" = type { i32 }
%"struct.std::atomic.28" = type { %"struct.std::__atomic_base.29" }
%"struct.std::__atomic_base.29" = type { i8 }
%"class.std::unique_ptr.30" = type { %"struct.std::__uniq_ptr_data.31" }
%"struct.std::__uniq_ptr_data.31" = type { %"class.std::__uniq_ptr_impl.32" }
%"class.std::__uniq_ptr_impl.32" = type { %"class.std::tuple.33" }
%"class.std::tuple.33" = type { %"struct.std::_Tuple_impl.34" }
%"struct.std::_Tuple_impl.34" = type { %"struct.std::_Head_base.37" }
%"struct.std::_Head_base.37" = type { ptr }
%"struct.std::atomic.38" = type { %"struct.std::__atomic_base.39" }
%"struct.std::__atomic_base.39" = type { i64 }
%"class.std::chrono::duration.40" = type { i64 }
%"class.folly::EventBase::SmoothLoopTime" = type { double, double, %"class.std::chrono::duration.40", %"class.std::chrono::duration.40", i64 }
%"class.folly::Function" = type { %"union.folly::detail::function::Data", ptr, ptr }
%"union.folly::detail::function::Data" = type { %"struct.folly::detail::function::Data::BigTrivialLayout", [24 x i8] }
%"struct.folly::detail::function::Data::BigTrivialLayout" = type { ptr, i64, i64 }
%"class.std::chrono::time_point" = type { %"class.std::chrono::duration.10" }
%"class.std::chrono::duration.10" = type { i64 }
%"class.std::shared_ptr" = type { %"class.std::__shared_ptr" }
%"class.std::__shared_ptr" = type { ptr, %"class.std::__shared_count" }
%"class.std::__shared_count" = type { ptr }
%"class.boost::intrusive::list.42" = type { %"class.boost::intrusive::list_impl.43" }
%"class.boost::intrusive::list_impl.43" = type { %"struct.boost::intrusive::list_impl<boost::intrusive::bhtraits<folly::ExecutionObserver, boost::intrusive::list_node_traits<void *>, boost::intrusive::auto_unlink, boost::intrusive::dft_tag, 1>, unsigned long, false, void>::data_t" }
%"struct.boost::intrusive::list_impl<boost::intrusive::bhtraits<folly::ExecutionObserver, boost::intrusive::list_node_traits<void *>, boost::intrusive::auto_unlink, boost::intrusive::dft_tag, 1>, unsigned long, false, void>::data_t" = type { %"struct.boost::intrusive::list_impl<boost::intrusive::bhtraits<folly::ExecutionObserver, boost::intrusive::list_node_traits<void *>, boost::intrusive::auto_unlink, boost::intrusive::dft_tag, 1>, unsigned long, false, void>::root_plus_size" }
%"struct.boost::intrusive::list_impl<boost::intrusive::bhtraits<folly::ExecutionObserver, boost::intrusive::list_node_traits<void *>, boost::intrusive::auto_unlink, boost::intrusive::dft_tag, 1>, unsigned long, false, void>::root_plus_size" = type { %"struct.boost::intrusive::detail::default_header_holder" }
%"class.std::__cxx11::basic_string" = type { %"struct.std::__cxx11::basic_string<char>::_Alloc_hider", i64, %union.anon.46 }
%"struct.std::__cxx11::basic_string<char>::_Alloc_hider" = type { ptr }
%union.anon.46 = type { i64, [8 x i8] }
%"class.folly::F14FastMap" = type { %"class.folly::f14::detail::F14VectorMapImpl" }
%"class.folly::f14::detail::F14VectorMapImpl" = type { %"class.folly::f14::detail::F14BasicMap" }
%"class.folly::f14::detail::F14BasicMap" = type { %"class.folly::f14::detail::F14Table" }
%"class.folly::f14::detail::F14Table" = type { %"class.folly::f14::detail::VectorContainerPolicy", ptr, %"struct.folly::f14::detail::SizeAndChunkShiftAndPackedBegin" }
%"class.folly::f14::detail::VectorContainerPolicy" = type { ptr }
%"struct.folly::f14::detail::SizeAndChunkShiftAndPackedBegin" = type { %"struct.folly::f14::detail::PackedSizeAndChunkShift" }
%"struct.folly::f14::detail::PackedSizeAndChunkShift" = type { i64 }
%"struct.folly::Synchronized.52" = type <{ %"class.folly::F14FastSet", %"class.folly::SharedMutexImpl", [4 x i8] }>
%"class.folly::F14FastSet" = type { %"class.folly::F14ValueSet" }
%"class.folly::F14ValueSet" = type { %"class.folly::f14::detail::F14BasicSet" }
%"class.folly::f14::detail::F14BasicSet" = type { %"class.folly::f14::detail::F14Table.55" }
%"class.folly::f14::detail::F14Table.55" = type { ptr, %"struct.folly::f14::detail::SizeAndChunkShiftAndPackedBegin.69" }
%"struct.folly::f14::detail::SizeAndChunkShiftAndPackedBegin.69" = type { %"struct.folly::f14::detail::PackedSizeAndChunkShift", %"class.folly::f14::detail::PackedChunkItemPtr" }
%"class.folly::f14::detail::PackedChunkItemPtr" = type { i64 }
%"class.folly::basic_once_flag" = type { %"struct.std::atomic.28", %"class.folly::SharedMutexImpl" }
%"class.std::unique_ptr.71" = type { %"struct.std::__uniq_ptr_data.72" }
%"struct.std::__uniq_ptr_data.72" = type { %"class.std::__uniq_ptr_impl.73" }
%"class.std::__uniq_ptr_impl.73" = type { %"class.std::tuple.74" }
%"class.std::tuple.74" = type { %"struct.std::_Tuple_impl.75" }
%"struct.std::_Tuple_impl.75" = type { %"struct.std::_Head_base.78" }
%"struct.std::_Head_base.78" = type { ptr }
%"class.std::unique_ptr.79" = type { %"struct.std::__uniq_ptr_data.80" }
%"struct.std::__uniq_ptr_data.80" = type { %"class.std::__uniq_ptr_impl.81" }
%"class.std::__uniq_ptr_impl.81" = type { %"class.std::tuple.82" }
%"class.std::tuple.82" = type { %"struct.std::_Tuple_impl.83" }
%"struct.std::_Tuple_impl.83" = type { %"struct.std::_Head_base.86" }
%"struct.std::_Head_base.86" = type { ptr }
%"class.std::unique_ptr.87" = type { %"struct.std::__uniq_ptr_data.88" }
%"struct.std::__uniq_ptr_data.88" = type { %"class.std::__uniq_ptr_impl.89" }
%"class.std::__uniq_ptr_impl.89" = type { %"class.std::tuple.90" }
%"class.std::tuple.90" = type { %"struct.std::_Tuple_impl.91" }
%"struct.std::_Tuple_impl.91" = type { %"struct.std::_Head_base.94" }
%"struct.std::_Head_base.94" = type { ptr }

; Function Attrs: mustprogress nounwind uwtable
define linkonce_odr noundef nonnull align 8 dereferenceable(8) ptr @_ZNSt10_Head_baseILm0EPN5folly20EventBaseBackendBaseELb0EE7_M_headERKS3_(ptr noundef nonnull align 8 dereferenceable(8) %0) #3 comdat align 2 {
  %2 = alloca ptr, align 8
  store ptr %0, ptr %2, align 8, !tbaa !45
  %3 = load ptr, ptr %2, align 8, !tbaa !45
  %4 = getelementptr inbounds nuw %"struct.std::_Head_base.86", ptr %3, i32 0, i32 0
  ret ptr %4
}

; Function Attrs: mustprogress nounwind uwtable
define linkonce_odr noundef nonnull align 8 dereferenceable(8) ptr @_ZNSt11_Tuple_implILm0EJPN5folly20EventBaseBackendBaseESt14default_deleteIS1_EEE7_M_headERKS5_(ptr noundef nonnull align 8 dereferenceable(8) %0) #3 comdat align 2 {
  %2 = alloca ptr, align 8
  store ptr %0, ptr %2, align 8, !tbaa !43
  %3 = load ptr, ptr %2, align 8, !tbaa !43
  %4 = call noundef nonnull align 8 dereferenceable(8) ptr @_ZNSt10_Head_baseILm0EPN5folly20EventBaseBackendBaseELb0EE7_M_headERKS3_(ptr noundef nonnull align 8 dereferenceable(8) %3) #12
  ret ptr %4
}

; Function Attrs: mustprogress nounwind uwtable
define linkonce_odr noundef nonnull align 8 dereferenceable(8) ptr @_ZSt12__get_helperILm0EPN5folly20EventBaseBackendBaseEJSt14default_deleteIS1_EEERKT0_RKSt11_Tuple_implIXT_EJS5_DpT1_EE(ptr noundef nonnull align 8 dereferenceable(8) %0) #3 comdat {
  %2 = alloca ptr, align 8
  store ptr %0, ptr %2, align 8, !tbaa !43
  %3 = load ptr, ptr %2, align 8, !tbaa !43
  %4 = call noundef nonnull align 8 dereferenceable(8) ptr @_ZNSt11_Tuple_implILm0EJPN5folly20EventBaseBackendBaseESt14default_deleteIS1_EEE7_M_headERKS5_(ptr noundef nonnull align 8 dereferenceable(8) %3) #12
  ret ptr %4
}

; Function Attrs: mustprogress nounwind uwtable
define linkonce_odr noundef nonnull align 8 dereferenceable(8) ptr @_ZSt3getILm0EJPN5folly20EventBaseBackendBaseESt14default_deleteIS1_EEERKNSt13tuple_elementIXT_ESt5tupleIJDpT0_EEE4typeERKS9_(ptr noundef nonnull align 8 dereferenceable(8) %0) #3 comdat {
  %2 = alloca ptr, align 8
  store ptr %0, ptr %2, align 8, !tbaa !41
  %3 = load ptr, ptr %2, align 8, !tbaa !41
  %4 = call noundef nonnull align 8 dereferenceable(8) ptr @_ZSt12__get_helperILm0EPN5folly20EventBaseBackendBaseEJSt14default_deleteIS1_EEERKT0_RKSt11_Tuple_implIXT_EJS5_DpT1_EE(ptr noundef nonnull align 8 dereferenceable(8) %3) #12
  ret ptr %4
}

; Function Attrs: mustprogress nounwind uwtable
define linkonce_odr noundef ptr @_ZNKSt15__uniq_ptr_implIN5folly20EventBaseBackendBaseESt14default_deleteIS1_EE6_M_ptrEv(ptr noundef nonnull align 8 dereferenceable(8) %0) #3 comdat align 2 {
  %2 = alloca ptr, align 8
  store ptr %0, ptr %2, align 8, !tbaa !39
  %3 = load ptr, ptr %2, align 8
  %4 = getelementptr inbounds nuw %"class.std::__uniq_ptr_impl.81", ptr %3, i32 0, i32 0
  %5 = call noundef nonnull align 8 dereferenceable(8) ptr @_ZSt3getILm0EJPN5folly20EventBaseBackendBaseESt14default_deleteIS1_EEERKNSt13tuple_elementIXT_ESt5tupleIJDpT0_EEE4typeERKS9_(ptr noundef nonnull align 8 dereferenceable(8) %4) #12
  %6 = load ptr, ptr %5, align 8, !tbaa !32
  ret ptr %6
}

; Function Attrs: mustprogress nounwind uwtable
define linkonce_odr noundef ptr @_ZNKSt10unique_ptrIN5folly20EventBaseBackendBaseESt14default_deleteIS1_EE3getEv(ptr noundef nonnull align 8 dereferenceable(8) %0) #3 comdat align 2 {
  %2 = alloca ptr, align 8
  store ptr %0, ptr %2, align 8, !tbaa !37
  %3 = load ptr, ptr %2, align 8
  %4 = getelementptr inbounds nuw %"class.std::unique_ptr.79", ptr %3, i32 0, i32 0
  %5 = call noundef ptr @_ZNKSt15__uniq_ptr_implIN5folly20EventBaseBackendBaseESt14default_deleteIS1_EE6_M_ptrEv(ptr noundef nonnull align 8 dereferenceable(8) %4) #12
  ret ptr %5
}

; Function Attrs: mustprogress nounwind uwtable
define linkonce_odr noundef ptr @_ZN5folly9EventBase10getBackendEv(ptr noundef nonnull align 16 dereferenceable(632) %0) #3 comdat align 2 {
  %2 = alloca ptr, align 8
  store ptr %0, ptr %2, align 8, !tbaa !12
  %3 = load ptr, ptr %2, align 8
  %4 = getelementptr inbounds nuw %"class.folly::EventBase", ptr %3, i32 0, i32 41
  %5 = call noundef ptr @_ZNKSt10unique_ptrIN5folly20EventBaseBackendBaseESt14default_deleteIS1_EE3getEv(ptr noundef nonnull align 8 dereferenceable(8) %4) #12
  ret ptr %5
}

; Function Attrs: mustprogress uwtable
define noundef ptr @_ZNK5folly14EventBaseEvent10getBackendEv(ptr noundef nonnull align 8 dereferenceable(168) %0) #0 align 2 {
  %2 = alloca ptr, align 8
  store ptr %0, ptr %2, align 8, !tbaa !7
  %3 = load ptr, ptr %2, align 8
  %4 = getelementptr inbounds nuw %"class.folly::EventBaseEvent", ptr %3, i32 0, i32 1
  %5 = load ptr, ptr %4, align 8, !tbaa !14
  %6 = icmp ne ptr %5, null
  br i1 %6, label %7, label %11

7:                                                ; preds = %1
  %8 = getelementptr inbounds nuw %"class.folly::EventBaseEvent", ptr %3, i32 0, i32 1
  %9 = load ptr, ptr %8, align 8, !tbaa !14
  %10 = call noundef ptr @_ZN5folly9EventBase10getBackendEv(ptr noundef nonnull align 16 dereferenceable(632) %9)
  br label %12

11:                                               ; preds = %1
  br label %12

12:                                               ; preds = %11, %7
  %13 = phi ptr [ %10, %7 ], [ null, %11 ]
  ret ptr %13
}

; Function Attrs: mustprogress uwtable
define noundef i32 @_ZN5folly14EventBaseEvent12eb_event_addEPK7timeval(ptr noundef nonnull align 8 dereferenceable(168) %0, ptr noundef %1) #0 align 2 {
  %3 = alloca i32, align 4
  %4 = alloca ptr, align 8
  %5 = alloca ptr, align 8
  %6 = alloca ptr, align 8
  %7 = alloca i32, align 4
  store ptr %0, ptr %4, align 8, !tbaa !7
  store ptr %1, ptr %5, align 8, !tbaa !30
  %8 = load ptr, ptr %4, align 8
  call void @llvm.lifetime.start.p0(i64 8, ptr %6) #12
  %9 = call noundef ptr @_ZNK5folly14EventBaseEvent10getBackendEv(ptr noundef nonnull align 8 dereferenceable(168) %8)
  store ptr %9, ptr %6, align 8, !tbaa !32
  %10 = load ptr, ptr %6, align 8, !tbaa !32
  %11 = icmp ne ptr %10, null
  br i1 %11, label %12, label %19

12:                                               ; preds = %2
  %13 = load ptr, ptr %6, align 8, !tbaa !32
  %14 = load ptr, ptr %5, align 8, !tbaa !30
  %15 = load ptr, ptr %13, align 8, !tbaa !34
  %16 = getelementptr inbounds ptr, ptr %15, i64 7
  %17 = load ptr, ptr %16, align 8
  %18 = call noundef i32 %17(ptr noundef nonnull align 8 dereferenceable(8) %13, ptr noundef nonnull align 8 dereferenceable(168) %8, ptr noundef %14)
  store i32 %18, ptr %3, align 4
  store i32 1, ptr %7, align 4
  br label %20

19:                                               ; preds = %2
  store i32 0, ptr %7, align 4
  br label %20

20:                                               ; preds = %19, %12
  call void @llvm.lifetime.end.p0(i64 8, ptr %6) #12
  %21 = load i32, ptr %7, align 4
  switch i32 %21, label %25 [
    i32 0, label %22
    i32 1, label %23
  ]

22:                                               ; preds = %20
  store i32 -1, ptr %3, align 4
  br label %23

23:                                               ; preds = %22, %20
  %24 = load i32, ptr %3, align 4
  ret i32 %24

25:                                               ; preds = %20
  unreachable
}